target datalayout = "e-m:e-p270:32:32-p271:32:32-p272:64:64-i64:64-i128:128-f80:128-n8:16:32:64-S128"
target triple = "x86_64-pc-linux-gnu"

%struct.RestorationUnitInfo = type { i32, [12 x i8], %struct.WienerInfo, %struct.SgrprojInfo, [4 x i8] }
%struct.WienerInfo = type { [8 x i16], [8 x i16] }
%struct.SgrprojInfo = type { i32, [2 x i32] }
%struct.ConvolveParams = type { i32, ptr, i32, i32, i32, i32, i32, i32, i32, i32 }

; Function Attrs: nounwind uwtable
define internal void @get_conv_params_wiener(ptr dead_on_unwind noalias writable sret(%struct.ConvolveParams) align 8 %0, i32 noundef %1) #0 {
  %3 = alloca i32, align 4
  %4 = alloca i32, align 4
  store i32 %1, ptr %3, align 4
  %5 = getelementptr inbounds nuw %struct.ConvolveParams, ptr %0, i32 0, i32 0
  store i32 0, ptr %5, align 8
  %6 = getelementptr inbounds nuw %struct.ConvolveParams, ptr %0, i32 0, i32 6
  store i32 0, ptr %6, align 8
  %7 = getelementptr inbounds nuw %struct.ConvolveParams, ptr %0, i32 0, i32 3
  store i32 3, ptr %7, align 4
  %8 = getelementptr inbounds nuw %struct.ConvolveParams, ptr %0, i32 0, i32 3
  %9 = load i32, ptr %8, align 4
  %10 = sub nsw i32 14, %9
  %11 = getelementptr inbounds nuw %struct.ConvolveParams, ptr %0, i32 0, i32 4
  store i32 %10, ptr %11, align 8
  %12 = load i32, ptr %3, align 4
  %13 = add nsw i32 %12, 7
  %14 = getelementptr inbounds nuw %struct.ConvolveParams, ptr %0, i32 0, i32 3
  %15 = load i32, ptr %14, align 4
  %16 = sub nsw i32 %13, %15
  %17 = add nsw i32 %16, 2
  store i32 %17, ptr %4, align 4
  %18 = load i32, ptr %4, align 4
  %19 = icmp sgt i32 %18, 16
  br i1 %19, label %20, label %31

20:                                               ; preds = %2
  %21 = load i32, ptr %4, align 4
  %22 = sub nsw i32 %21, 16
  %23 = getelementptr inbounds nuw %struct.ConvolveParams, ptr %0, i32 0, i32 3
  %24 = load i32, ptr %23, align 4
  %25 = add nsw i32 %24, %22
  store i32 %25, ptr %23, align 4
  %26 = load i32, ptr %4, align 4
  %27 = sub nsw i32 %26, 16
  %28 = getelementptr inbounds nuw %struct.ConvolveParams, ptr %0, i32 0, i32 4
  %29 = load i32, ptr %28, align 8
  %30 = sub nsw i32 %29, %27
  store i32 %30, ptr %28, align 8
  br label %31

31:                                               ; preds = %20, %2
  %32 = getelementptr inbounds nuw %struct.ConvolveParams, ptr %0, i32 0, i32 1
  store ptr null, ptr %32, align 8
  %33 = getelementptr inbounds nuw %struct.ConvolveParams, ptr %0, i32 0, i32 2
  store i32 0, ptr %33, align 8
  %34 = getelementptr inbounds nuw %struct.ConvolveParams, ptr %0, i32 0, i32 5
  store i32 0, ptr %34, align 4
  ret void
}

; Function Attrs: nounwind uwtable
define internal void @wiener_filter_stripe_highbd(ptr noundef %0, i32 noundef %1, i32 noundef %2, i32 noundef %3, ptr noundef %4, i32 noundef %5, ptr noundef %6, i32 noundef %7, ptr noundef %8, i32 noundef %9) #0 {
  %11 = alloca ptr, align 8
  %12 = alloca i32, align 4
  %13 = alloca i32, align 4
  %14 = alloca i32, align 4
  %15 = alloca ptr, align 8
  %16 = alloca i32, align 4
  %17 = alloca ptr, align 8
  %18 = alloca i32, align 4
  %19 = alloca ptr, align 8
  %20 = alloca i32, align 4
  %21 = alloca %struct.ConvolveParams, align 8
  %22 = alloca i32, align 4
  %23 = alloca i32, align 4
  %24 = alloca ptr, align 8
  %25 = alloca ptr, align 8
  store ptr %0, ptr %11, align 8
  store i32 %1, ptr %12, align 4
  store i32 %2, ptr %13, align 4
  store i32 %3, ptr %14, align 4
  store ptr %4, ptr %15, align 8
  store i32 %5, ptr %16, align 4
  store ptr %6, ptr %17, align 8
  store i32 %7, ptr %18, align 4
  store ptr %8, ptr %19, align 8
  store i32 %9, ptr %20, align 4
  %26 = load i32, ptr %20, align 4
  call void @get_conv_params_wiener(ptr dead_on_unwind writable sret(%struct.ConvolveParams) align 8 %21, i32 noundef %26)
  store i32 0, ptr %22, align 4
  br label %27

27:                                               ; preds = %74, %10
  %28 = load i32, ptr %22, align 4
  %29 = load i32, ptr %12, align 4
  %30 = icmp slt i32 %28, %29
  br i1 %30, label %31, label %78

31:                                               ; preds = %27
  %32 = load i32, ptr %14, align 4
  %33 = load i32, ptr %12, align 4
  %34 = load i32, ptr %22, align 4
  %35 = sub nsw i32 %33, %34
  %36 = add nsw i32 %35, 15
  %37 = and i32 %36, -16
  %38 = icmp slt i32 %32, %37
  br i1 %38, label %39, label %41

39:                                               ; preds = %31
  %40 = load i32, ptr %14, align 4
  br label %47

41:                                               ; preds = %31
  %42 = load i32, ptr %12, align 4
  %43 = load i32, ptr %22, align 4
  %44 = sub nsw i32 %42, %43
  %45 = add nsw i32 %44, 15
  %46 = and i32 %45, -16
  br label %47

47:                                               ; preds = %41, %39
  %48 = phi i32 [ %40, %39 ], [ %46, %41 ]
  store i32 %48, ptr %23, align 4
  %49 = load ptr, ptr %15, align 8
  %50 = load i32, ptr %22, align 4
  %51 = sext i32 %50 to i64
  %52 = getelementptr inbounds i8, ptr %49, i64 %51
  store ptr %52, ptr %24, align 8
  %53 = load ptr, ptr %17, align 8
  %54 = load i32, ptr %22, align 4
  %55 = sext i32 %54 to i64
  %56 = getelementptr inbounds i8, ptr %53, i64 %55
  store ptr %56, ptr %25, align 8
  %57 = load ptr, ptr %24, align 8
  %58 = load i32, ptr %16, align 4
  %59 = sext i32 %58 to i64
  %60 = load ptr, ptr %25, align 8
  %61 = load i32, ptr %18, align 4
  %62 = sext i32 %61 to i64
  %63 = load ptr, ptr %11, align 8
  %64 = getelementptr inbounds nuw %struct.RestorationUnitInfo, ptr %63, i32 0, i32 2
  %65 = getelementptr inbounds nuw %struct.WienerInfo, ptr %64, i32 0, i32 1
  %66 = getelementptr inbounds [8 x i16], ptr %65, i64 0, i64 0
  %67 = load ptr, ptr %11, align 8
  %68 = getelementptr inbounds nuw %struct.RestorationUnitInfo, ptr %67, i32 0, i32 2
  %69 = getelementptr inbounds nuw %struct.WienerInfo, ptr %68, i32 0, i32 0
  %70 = getelementptr inbounds [8 x i16], ptr %69, i64 0, i64 0
  %71 = load i32, ptr %23, align 4
  %72 = load i32, ptr %13, align 4
  %73 = load i32, ptr %20, align 4
  call void @av1_highbd_wiener_convolve_add_src_c(ptr noundef %57, i64 noundef %59, ptr noundef %60, i64 noundef %62, ptr noundef %66, i32 noundef 16, ptr noundef %70, i32 noundef 16, i32 noundef %71, i32 noundef %72, ptr noundef %21, i32 noundef %73)
  br label %74

74:                                               ; preds = %47
  %75 = load i32, ptr %14, align 4
  %76 = load i32, ptr %22, align 4
  %77 = add nsw i32 %76, %75
  store i32 %77, ptr %22, align 4
  br label %27, !llvm.loop !53

78:                                               ; preds = %27
  ret void
}