; Function Attrs: nounwind uwtable
define internal void @wiener_filter_stripe_highbd(ptr noundef %0, i32 noundef %1, i32 noundef %2, i32 noundef %3, ptr noundef %4, i32 noundef %5, ptr noundef %6, i32 noundef %7, ptr readnone captures(none) %8, i32 noundef %9) #2 {
  %11 = alloca %struct.ConvolveParams, align 8
  store i32 0, ptr %11, align 8, !alias.scope !58
  %12 = getelementptr inbounds nuw i8, ptr %11, i64 32
  store i32 0, ptr %12, align 8, !alias.scope !58
  %13 = getelementptr inbounds nuw i8, ptr %11, i64 20
  store i32 3, ptr %13, align 4, !alias.scope !58
  %14 = getelementptr inbounds nuw i8, ptr %11, i64 24
  store i32 11, ptr %14, align 8, !alias.scope !58
  %15 = icmp sgt i32 %9, 10
  br i1 %15, label %16, label %get_conv_params_wiener.exit

16:                                               ; preds = %10
  %17 = add nsw i32 %9, -7
  store i32 %17, ptr %13, align 4, !alias.scope !58
  %18 = sub nsw i32 21, %9
  store i32 %18, ptr %14, align 8, !alias.scope !58
  br label %get_conv_params_wiener.exit

get_conv_params_wiener.exit:                      ; preds = %10, %16
  %19 = getelementptr inbounds nuw i8, ptr %11, i64 8
  store ptr null, ptr %19, align 8, !alias.scope !58
  %20 = getelementptr inbounds nuw i8, ptr %11, i64 16
  store i32 0, ptr %20, align 8, !alias.scope !58
  %21 = getelementptr inbounds nuw i8, ptr %11, i64 28
  store i32 0, ptr %21, align 4, !alias.scope !58
  %22 = icmp sgt i32 %1, 0
  br i1 %22, label %.lr.ph, label %._crit_edge

.lr.ph:                                           ; preds = %get_conv_params_wiener.exit
  %23 = add nuw i32 %1, 15
  %24 = sext i32 %5 to i64
  %25 = sext i32 %7 to i64
  %26 = getelementptr inbounds nuw i8, ptr %0, i64 16
  %27 = getelementptr inbounds nuw i8, ptr %0, i64 32
  %28 = sext i32 %3 to i64
  %29 = zext nneg i32 %1 to i64
  br label %30

30:                                               ; preds = %.lr.ph, %30
  %indvars.iv = phi i64 [ 0, %.lr.ph ], [ %indvars.iv.next, %30 ]
  %31 = trunc nsw i64 %indvars.iv to i32
  %32 = sub i32 %23, %31
  %33 = and i32 %32, -16
  %. = call i32 @llvm.smin.i32(i32 %3, i32 %33)
  %34 = getelementptr inbounds i8, ptr %4, i64 %indvars.iv
  %35 = getelementptr inbounds i8, ptr %6, i64 %indvars.iv
  call void @av1_highbd_wiener_convolve_add_src_c(ptr noundef %34, i64 noundef %24, ptr noundef %35, i64 noundef %25, ptr noundef nonnull %27, i32 noundef 16, ptr noundef nonnull %26, i32 noundef 16, i32 noundef %., i32 noundef %2, ptr noundef nonnull %11, i32 noundef %9) #12
  %indvars.iv.next = add nsw i64 %indvars.iv, %28
  %36 = icmp slt i64 %indvars.iv.next, %29
  br i1 %36, label %30, label %._crit_edge, !llvm.loop !61

._crit_edge:                                      ; preds = %30, %get_conv_params_wiener.exit
  ret void
}